; Function Attrs: mustprogress nofree nounwind uwtable
define internal noundef range(i32 0, 2) i32 @_ZL15stbi__stdio_eofPv(ptr noundef captures(none) %0) #8 {
  %2 = tail call i32 @feof(ptr noundef %0) #35
  %.not = icmp eq i32 %2, 0
  br i1 %.not, label %3, label %7

3:                                                ; preds = %1
  %4 = tail call i32 @ferror(ptr noundef %0) #35
  %5 = icmp ne i32 %4, 0
  %6 = zext i1 %5 to i32
  br label %7

7:                                                ; preds = %3, %1
  %8 = phi i32 [ 1, %1 ], [ %6, %3 ]
  ret i32 %8
}